; Function Attrs: mustprogress nounwind uwtable
define hidden void @_ZNK18shrL_rReg_rRegNode4emitEP17C2_MacroAssemblerP13PhaseRegAlloc(ptr noundef nonnull align 8 dereferenceable(96) %0, ptr noundef %1, ptr noundef %2) unnamed_addr #3 align 2 {
  %4 = getelementptr inbounds i8, ptr %0, i64 64
  %5 = getelementptr inbounds i8, ptr %0, i64 72
  %6 = load ptr, ptr %5, align 8
  %7 = load ptr, ptr %6, align 8
  %8 = getelementptr inbounds i8, ptr %7, i64 8
  %9 = load ptr, ptr %8, align 8
  %10 = tail call noundef i32 %9(ptr noundef nonnull align 8 dereferenceable(8) %6) #23
  %11 = add i32 %10, 1
  %12 = load ptr, ptr %4, align 8
  %13 = load ptr, ptr %12, align 8
  %14 = getelementptr inbounds i8, ptr %13, i64 32
  %15 = load ptr, ptr %14, align 8
  %16 = tail call noundef i32 %15(ptr noundef nonnull align 8 dereferenceable(8) %12, ptr noundef %2, ptr noundef nonnull %0) #23
  %or.cond.i.i = icmp ult i32 %16, 32
  %spec.select.i.i = select i1 %or.cond.i.i, i32 %16, i32 -1
  %17 = load ptr, ptr %5, align 8
  %18 = load ptr, ptr %17, align 8
  %19 = getelementptr inbounds i8, ptr %18, i64 40
  %20 = load ptr, ptr %19, align 8
  %21 = tail call noundef i32 %20(ptr noundef nonnull align 8 dereferenceable(8) %17, ptr noundef %2, ptr noundef nonnull %0, i32 noundef 1) #23
  %or.cond.i.i9 = icmp ult i32 %21, 32
  %spec.select.i.i10 = select i1 %or.cond.i.i9, i32 %21, i32 -1
  %22 = getelementptr inbounds i8, ptr %0, i64 80
  %23 = load ptr, ptr %22, align 8
  %24 = load ptr, ptr %23, align 8
  %25 = getelementptr inbounds i8, ptr %24, i64 40
  %26 = load ptr, ptr %25, align 8
  %27 = tail call noundef i32 %26(ptr noundef nonnull align 8 dereferenceable(8) %23, ptr noundef %2, ptr noundef nonnull %0, i32 noundef %11) #23
  %or.cond.i.i11 = icmp ult i32 %27, 32
  %spec.select.i.i12 = select i1 %or.cond.i.i11, i32 %27, i32 -1
  tail call void @_ZN9Assembler5shrxqE8RegisterS0_S0_(ptr noundef nonnull align 8 dereferenceable(40) %1, i32 %spec.select.i.i, i32 %spec.select.i.i10, i32 %spec.select.i.i12) #23
  ret void
}